target datalayout = "e-m:e-p270:32:32-p271:32:32-p272:64:64-i64:64-i128:128-f80:128-n8:16:32:64-S128"
target triple = "x86_64-unknown-linux-gnu"

%"class.facebook::velox::memory::MallocAllocator" = type { %"class.facebook::velox::memory::MemoryAllocator", i32, i64, %"struct.std::atomic.0", %"class.std::mutex", %"class.std::unordered_set", %"class.std::shared_ptr" }
%"class.facebook::velox::memory::MemoryAllocator" = type { ptr, %"class.std::enable_shared_from_this", %"class.std::vector", %"struct.std::atomic", %"struct.std::atomic", i32, i8, %"struct.facebook::velox::memory::Stats" }
%"class.std::enable_shared_from_this" = type { %"class.std::weak_ptr" }
%"class.std::weak_ptr" = type { %"class.std::__weak_ptr" }
%"class.std::__weak_ptr" = type { ptr, %"class.std::__weak_count" }
%"class.std::__weak_count" = type { ptr }
%"class.std::vector" = type { %"struct.std::_Vector_base" }
%"struct.std::_Vector_base" = type { %"struct.std::_Vector_base<unsigned long, std::allocator<unsigned long>>::_Vector_impl" }
%"struct.std::_Vector_base<unsigned long, std::allocator<unsigned long>>::_Vector_impl" = type { %"struct.std::_Vector_base<unsigned long, std::allocator<unsigned long>>::_Vector_impl_data" }
%"struct.std::_Vector_base<unsigned long, std::allocator<unsigned long>>::_Vector_impl_data" = type { ptr, ptr, ptr }
%"struct.std::atomic" = type { %"struct.std::__atomic_base" }
%"struct.std::__atomic_base" = type { i64 }
%"struct.facebook::velox::memory::Stats" = type { %"struct.std::array", i64 }
%"struct.std::array" = type { [20 x %"struct.facebook::velox::memory::SizeClassStats"] }
%"struct.facebook::velox::memory::SizeClassStats" = type { i32, %"struct.std::atomic", %"struct.std::atomic", %"struct.std::atomic.0", %"struct.std::atomic.0" }
%"struct.std::atomic.0" = type { %"struct.std::__atomic_base.1" }
%"struct.std::__atomic_base.1" = type { i64 }
%"class.std::mutex" = type { %"class.std::__mutex_base" }
%"class.std::__mutex_base" = type { %union.pthread_mutex_t }
%union.pthread_mutex_t = type { %struct.__pthread_mutex_s }
%struct.__pthread_mutex_s = type { i32, i32, i32, i32, i32, i16, i16, %struct.__pthread_internal_list }
%struct.__pthread_internal_list = type { ptr, ptr }
%"class.std::unordered_set" = type { %"class.std::_Hashtable" }
%"class.std::_Hashtable" = type { ptr, i64, %"struct.std::__detail::_Hash_node_base", i64, %"struct.std::__detail::_Prime_rehash_policy", ptr }
%"struct.std::__detail::_Hash_node_base" = type { ptr }
%"struct.std::__detail::_Prime_rehash_policy" = type { float, i64 }
%"class.std::shared_ptr" = type { %"class.std::__shared_ptr" }
%"class.std::__shared_ptr" = type { ptr, %"class.std::__shared_count" }
%"class.std::__shared_count" = type { ptr }
%"class.google::LogMessage" = type { ptr, ptr }
%"class.std::__cxx11::basic_string" = type { %"struct.std::__cxx11::basic_string<char>::_Alloc_hider", i64, %union.anon }
%"struct.std::__cxx11::basic_string<char>::_Alloc_hider" = type { ptr }
%union.anon = type { i64, [8 x i8] }

@.str = private unnamed_addr constant [129 x i8] c"generated/home/dtcxzyw/WorkSpace/Projects/compilers/llvm-opt-benchmark/bench/velox/velox/velox/common/memory/MallocAllocator.cpp\00", align 1
@.str.1 = private unnamed_addr constant [7 x i8] c"[MEM] \00", align 1
@.str.21 = private unnamed_addr constant [30 x i8] c"Failed to allocateZeroFilled \00", align 1

; Function Attrs: mustprogress nounwind uwtable
define linkonce_odr noundef zeroext i1 @_ZN8facebook5velox6memory15MallocAllocator14incrementUsageEl(ptr noundef nonnull align 8 dereferenceable(1016) %this, i64 noundef %bytes) #1 comdat align 2 {
entry:
  %this.addr.i6 = alloca ptr, align 8
  %__i.addr.i7 = alloca i64, align 8
  %__m.addr.i8 = alloca i32, align 4
  %.atomictmp.i9 = alloca i64, align 8
  %atomic-temp.i10 = alloca i64, align 8
  %this.addr.i = alloca ptr, align 8
  %__i.addr.i = alloca i64, align 8
  %__m.addr.i = alloca i32, align 4
  %.atomictmp.i = alloca i64, align 8
  %atomic-temp.i = alloca i64, align 8
  %retval = alloca i1, align 1
  %this.addr = alloca ptr, align 8
  %bytes.addr = alloca i64, align 8
  %originalBytes = alloca i64, align 8
  store ptr %this, ptr %this.addr, align 8
  store i64 %bytes, ptr %bytes.addr, align 8
  %this1 = load ptr, ptr %this.addr, align 8
  %allocatedBytes_ = getelementptr inbounds %"class.facebook::velox::memory::MallocAllocator", ptr %this1, i32 0, i32 3
  %0 = load i64, ptr %bytes.addr, align 8
  store ptr %allocatedBytes_, ptr %this.addr.i, align 8
  store i64 %0, ptr %__i.addr.i, align 8
  store i32 5, ptr %__m.addr.i, align 4
  %this1.i = load ptr, ptr %this.addr.i, align 8
  %1 = load i32, ptr %__m.addr.i, align 4
  %2 = load i64, ptr %__i.addr.i, align 8
  store i64 %2, ptr %.atomictmp.i, align 8
  switch i32 %1, label %monotonic.i [
    i32 1, label %acquire.i
    i32 2, label %acquire.i
    i32 3, label %release.i
    i32 4, label %acqrel.i
    i32 5, label %seqcst.i
  ]

monotonic.i:                                      ; preds = %entry
  %3 = load i64, ptr %.atomictmp.i, align 8
  %4 = atomicrmw add ptr %this1.i, i64 %3 monotonic, align 8
  store i64 %4, ptr %atomic-temp.i, align 8
  br label %_ZNSt13__atomic_baseIlE9fetch_addElSt12memory_order.exit

acquire.i:                                        ; preds = %entry, %entry
  %5 = load i64, ptr %.atomictmp.i, align 8
  %6 = atomicrmw add ptr %this1.i, i64 %5 acquire, align 8
  store i64 %6, ptr %atomic-temp.i, align 8
  br label %_ZNSt13__atomic_baseIlE9fetch_addElSt12memory_order.exit

release.i:                                        ; preds = %entry
  %7 = load i64, ptr %.atomictmp.i, align 8
  %8 = atomicrmw add ptr %this1.i, i64 %7 release, align 8
  store i64 %8, ptr %atomic-temp.i, align 8
  br label %_ZNSt13__atomic_baseIlE9fetch_addElSt12memory_order.exit

acqrel.i:                                         ; preds = %entry
  %9 = load i64, ptr %.atomictmp.i, align 8
  %10 = atomicrmw add ptr %this1.i, i64 %9 acq_rel, align 8
  store i64 %10, ptr %atomic-temp.i, align 8
  br label %_ZNSt13__atomic_baseIlE9fetch_addElSt12memory_order.exit

seqcst.i:                                         ; preds = %entry
  %11 = load i64, ptr %.atomictmp.i, align 8
  %12 = atomicrmw add ptr %this1.i, i64 %11 seq_cst, align 8
  store i64 %12, ptr %atomic-temp.i, align 8
  br label %_ZNSt13__atomic_baseIlE9fetch_addElSt12memory_order.exit

_ZNSt13__atomic_baseIlE9fetch_addElSt12memory_order.exit: ; preds = %seqcst.i, %acqrel.i, %release.i, %acquire.i, %monotonic.i
  %13 = load i64, ptr %atomic-temp.i, align 8
  store i64 %13, ptr %originalBytes, align 8
  %capacity_ = getelementptr inbounds %"class.facebook::velox::memory::MallocAllocator", ptr %this1, i32 0, i32 2
  %14 = load i64, ptr %capacity_, align 8
  %cmp = icmp ne i64 %14, 0
  br i1 %cmp, label %land.lhs.true, label %if.end

land.lhs.true:                                    ; preds = %_ZNSt13__atomic_baseIlE9fetch_addElSt12memory_order.exit
  %15 = load i64, ptr %originalBytes, align 8
  %16 = load i64, ptr %bytes.addr, align 8
  %add = add nsw i64 %15, %16
  %capacity_2 = getelementptr inbounds %"class.facebook::velox::memory::MallocAllocator", ptr %this1, i32 0, i32 2
  %17 = load i64, ptr %capacity_2, align 8
  %cmp3 = icmp ugt i64 %add, %17
  br i1 %cmp3, label %if.then, label %if.end

if.then:                                          ; preds = %land.lhs.true
  %allocatedBytes_4 = getelementptr inbounds %"class.facebook::velox::memory::MallocAllocator", ptr %this1, i32 0, i32 3
  %18 = load i64, ptr %bytes.addr, align 8
  store ptr %allocatedBytes_4, ptr %this.addr.i6, align 8
  store i64 %18, ptr %__i.addr.i7, align 8
  store i32 5, ptr %__m.addr.i8, align 4
  %this1.i11 = load ptr, ptr %this.addr.i6, align 8
  %19 = load i32, ptr %__m.addr.i8, align 4
  %20 = load i64, ptr %__i.addr.i7, align 8
  store i64 %20, ptr %.atomictmp.i9, align 8
  switch i32 %19, label %monotonic.i16 [
    i32 1, label %acquire.i15
    i32 2, label %acquire.i15
    i32 3, label %release.i14
    i32 4, label %acqrel.i13
    i32 5, label %seqcst.i12
  ]

monotonic.i16:                                    ; preds = %if.then
  %21 = load i64, ptr %.atomictmp.i9, align 8
  %22 = atomicrmw sub ptr %this1.i11, i64 %21 monotonic, align 8
  store i64 %22, ptr %atomic-temp.i10, align 8
  br label %_ZNSt13__atomic_baseIlE9fetch_subElSt12memory_order.exit

acquire.i15:                                      ; preds = %if.then, %if.then
  %23 = load i64, ptr %.atomictmp.i9, align 8
  %24 = atomicrmw sub ptr %this1.i11, i64 %23 acquire, align 8
  store i64 %24, ptr %atomic-temp.i10, align 8
  br label %_ZNSt13__atomic_baseIlE9fetch_subElSt12memory_order.exit

release.i14:                                      ; preds = %if.then
  %25 = load i64, ptr %.atomictmp.i9, align 8
  %26 = atomicrmw sub ptr %this1.i11, i64 %25 release, align 8
  store i64 %26, ptr %atomic-temp.i10, align 8
  br label %_ZNSt13__atomic_baseIlE9fetch_subElSt12memory_order.exit

acqrel.i13:                                       ; preds = %if.then
  %27 = load i64, ptr %.atomictmp.i9, align 8
  %28 = atomicrmw sub ptr %this1.i11, i64 %27 acq_rel, align 8
  store i64 %28, ptr %atomic-temp.i10, align 8
  br label %_ZNSt13__atomic_baseIlE9fetch_subElSt12memory_order.exit

seqcst.i12:                                       ; preds = %if.then
  %29 = load i64, ptr %.atomictmp.i9, align 8
  %30 = atomicrmw sub ptr %this1.i11, i64 %29 seq_cst, align 8
  store i64 %30, ptr %atomic-temp.i10, align 8
  br label %_ZNSt13__atomic_baseIlE9fetch_subElSt12memory_order.exit

_ZNSt13__atomic_baseIlE9fetch_subElSt12memory_order.exit: ; preds = %seqcst.i12, %acqrel.i13, %release.i14, %acquire.i15, %monotonic.i16
  store i1 false, ptr %retval, align 1
  br label %return

if.end:                                           ; preds = %land.lhs.true, %_ZNSt13__atomic_baseIlE9fetch_addElSt12memory_order.exit
  store i1 true, ptr %retval, align 1
  br label %return

return:                                           ; preds = %if.end, %_ZNSt13__atomic_baseIlE9fetch_subElSt12memory_order.exit
  %31 = load i1, ptr %retval, align 1
  ret i1 %31
}

; Function Attrs: mustprogress uwtable
define noundef ptr @_ZN8facebook5velox6memory15MallocAllocator30allocateZeroFilledWithoutRetryEm(ptr noundef nonnull align 8 dereferenceable(1016) %this, i64 noundef %bytes) unnamed_addr #0 align 2 personality ptr @__gxx_personality_v0 {
entry:
  %retval = alloca ptr, align 8
  %this.addr = alloca ptr, align 8
  %bytes.addr = alloca i64, align 8
  %result = alloca ptr, align 8
  %ref.tmp = alloca %"class.google::LogMessage", align 8
  %exn.slot = alloca ptr, align 8
  %ehselector.slot = alloca i32, align 4
  %ref.tmp9 = alloca %"class.std::__cxx11::basic_string", align 8
  store ptr %this, ptr %this.addr, align 8
  store i64 %bytes, ptr %bytes.addr, align 8
  %this1 = load ptr, ptr %this.addr, align 8
  %0 = load i64, ptr %bytes.addr, align 8
  %call = call noundef zeroext i1 @_ZN8facebook5velox6memory15MallocAllocator14incrementUsageEl(ptr noundef nonnull align 8 dereferenceable(1016) %this1, i64 noundef %0)
  br i1 %call, label %if.end, label %if.then

if.then:                                          ; preds = %entry
  store ptr null, ptr %retval, align 8
  br label %return

if.end:                                           ; preds = %entry
  %1 = load i64, ptr %bytes.addr, align 8
  %call2 = call noalias ptr @calloc(i64 noundef 1, i64 noundef %1) #26
  store ptr %call2, ptr %result, align 8
  %2 = load ptr, ptr %result, align 8
  %cmp = icmp eq ptr %2, null
  br i1 %cmp, label %if.then3, label %if.end14

if.then3:                                         ; preds = %if.end
  call void @_ZN6google10LogMessageC1EPKcii(ptr noundef nonnull align 8 dereferenceable(16) %ref.tmp, ptr noundef @.str, i32 noundef 336, i32 noundef 2)
  %call4 = invoke noundef nonnull align 8 dereferenceable(8) ptr @_ZN6google10LogMessage6streamEv(ptr noundef nonnull align 8 dereferenceable(16) %ref.tmp)
          to label %invoke.cont unwind label %lpad

invoke.cont:                                      ; preds = %if.then3
  %call6 = invoke noundef nonnull align 8 dereferenceable(8) ptr @_ZStlsISt11char_traitsIcEERSt13basic_ostreamIcT_ES5_PKc(ptr noundef nonnull align 8 dereferenceable(8) %call4, ptr noundef @.str.1)
          to label %invoke.cont5 unwind label %lpad

invoke.cont5:                                     ; preds = %invoke.cont
  %call8 = invoke noundef nonnull align 8 dereferenceable(8) ptr @_ZStlsISt11char_traitsIcEERSt13basic_ostreamIcT_ES5_PKc(ptr noundef nonnull align 8 dereferenceable(8) %call6, ptr noundef @.str.21)
          to label %invoke.cont7 unwind label %lpad

invoke.cont7:                                     ; preds = %invoke.cont5
  %3 = load i64, ptr %bytes.addr, align 8
  invoke void @_ZN8facebook5velox13succinctBytesB5cxx11Emi(ptr sret(%"class.std::__cxx11::basic_string") align 8 %ref.tmp9, i64 noundef %3, i32 noundef 2)
          to label %invoke.cont10 unwind label %lpad

invoke.cont10:                                    ; preds = %invoke.cont7
  %call13 = invoke noundef nonnull align 8 dereferenceable(8) ptr @_ZStlsIcSt11char_traitsIcESaIcEERSt13basic_ostreamIT_T0_ES7_RKNSt7__cxx1112basic_stringIS4_S5_T1_EE(ptr noundef nonnull align 8 dereferenceable(8) %call8, ptr noundef nonnull align 8 dereferenceable(32) %ref.tmp9)
          to label %invoke.cont12 unwind label %lpad11

invoke.cont12:                                    ; preds = %invoke.cont10
  call void @_ZNSt7__cxx1112basic_stringIcSt11char_traitsIcESaIcEED1Ev(ptr noundef nonnull align 8 dereferenceable(32) %ref.tmp9) #19
  call void @_ZN6google10LogMessageD1Ev(ptr noundef nonnull align 8 dereferenceable(16) %ref.tmp) #19
  br label %if.end14

lpad:                                             ; preds = %invoke.cont7, %invoke.cont5, %invoke.cont, %if.then3
  %4 = landingpad { ptr, i32 }
          cleanup
  %5 = extractvalue { ptr, i32 } %4, 0
  store ptr %5, ptr %exn.slot, align 8
  %6 = extractvalue { ptr, i32 } %4, 1
  store i32 %6, ptr %ehselector.slot, align 4
  br label %ehcleanup

lpad11:                                           ; preds = %invoke.cont10
  %7 = landingpad { ptr, i32 }
          cleanup
  %8 = extractvalue { ptr, i32 } %7, 0
  store ptr %8, ptr %exn.slot, align 8
  %9 = extractvalue { ptr, i32 } %7, 1
  store i32 %9, ptr %ehselector.slot, align 4
  call void @_ZNSt7__cxx1112basic_stringIcSt11char_traitsIcESaIcEED1Ev(ptr noundef nonnull align 8 dereferenceable(32) %ref.tmp9) #19
  br label %ehcleanup

ehcleanup:                                        ; preds = %lpad11, %lpad
  call void @_ZN6google10LogMessageD1Ev(ptr noundef nonnull align 8 dereferenceable(16) %ref.tmp) #19
  br label %eh.resume

if.end14:                                         ; preds = %invoke.cont12, %if.end
  %10 = load ptr, ptr %result, align 8
  store ptr %10, ptr %retval, align 8
  br label %return

return:                                           ; preds = %if.end14, %if.then
  %11 = load ptr, ptr %retval, align 8
  ret ptr %11

eh.resume:                                        ; preds = %ehcleanup
  %exn = load ptr, ptr %exn.slot, align 8
  %sel = load i32, ptr %ehselector.slot, align 4
  %lpad.val = insertvalue { ptr, i32 } poison, ptr %exn, 0
  %lpad.val15 = insertvalue { ptr, i32 } %lpad.val, i32 %sel, 1
  resume { ptr, i32 } %lpad.val15
}