; Function Attrs: mustprogress uwtable
define noalias noundef ptr @_ZN8facebook5velox6memory15MallocAllocator30allocateZeroFilledWithoutRetryEm(ptr nocapture noundef nonnull align 8 dereferenceable(1016) %this, i64 noundef %bytes) unnamed_addr #0 align 2 personality ptr @__gxx_personality_v0 {
entry:
  %ref.tmp = alloca %"class.google::LogMessage", align 8
  %ref.tmp9 = alloca %"class.std::__cxx11::basic_string", align 8
  %allocatedBytes_.i = getelementptr inbounds i8, ptr %this, i64 896
  %0 = atomicrmw add ptr %allocatedBytes_.i, i64 %bytes seq_cst, align 8
  %capacity_.i = getelementptr inbounds i8, ptr %this, i64 888
  %1 = load i64, ptr %capacity_.i, align 8
  %cmp.not.i = icmp eq i64 %1, 0
  %add.i = add nsw i64 %0, %bytes
  %cmp3.i = icmp ule i64 %add.i, %1
  %or.cond.not.i = select i1 %cmp.not.i, i1 true, i1 %cmp3.i
  br i1 %or.cond.not.i, label %if.end, label %_ZN8facebook5velox6memory15MallocAllocator14incrementUsageEl.exit

_ZN8facebook5velox6memory15MallocAllocator14incrementUsageEl.exit: ; preds = %entry
  %2 = atomicrmw sub ptr %allocatedBytes_.i, i64 %bytes seq_cst, align 8
  br label %return

if.end:                                           ; preds = %entry
  %call2 = tail call noalias ptr @calloc(i64 noundef 1, i64 noundef %bytes) #32
  %cmp = icmp eq ptr %call2, null
  br i1 %cmp, label %if.then3, label %return

if.then3:                                         ; preds = %if.end
  call void @_ZN6google10LogMessageC1EPKcii(ptr noundef nonnull align 8 dereferenceable(16) %ref.tmp, ptr noundef nonnull @.str, i32 noundef 336, i32 noundef 2)
  %call4 = invoke noundef nonnull align 8 dereferenceable(8) ptr @_ZN6google10LogMessage6streamEv(ptr noundef nonnull align 8 dereferenceable(16) %ref.tmp)
          to label %invoke.cont unwind label %lpad

invoke.cont:                                      ; preds = %if.then3
  %call6 = invoke noundef nonnull align 8 dereferenceable(8) ptr @_ZStlsISt11char_traitsIcEERSt13basic_ostreamIcT_ES5_PKc(ptr noundef nonnull align 8 dereferenceable(8) %call4, ptr noundef nonnull @.str.1)
          to label %invoke.cont5 unwind label %lpad

invoke.cont5:                                     ; preds = %invoke.cont
  %call8 = invoke noundef nonnull align 8 dereferenceable(8) ptr @_ZStlsISt11char_traitsIcEERSt13basic_ostreamIcT_ES5_PKc(ptr noundef nonnull align 8 dereferenceable(8) %call6, ptr noundef nonnull @.str.21)
          to label %invoke.cont7 unwind label %lpad

invoke.cont7:                                     ; preds = %invoke.cont5
  invoke void @_ZN8facebook5velox13succinctBytesB5cxx11Emi(ptr nonnull sret(%"class.std::__cxx11::basic_string") align 8 %ref.tmp9, i64 noundef %bytes, i32 noundef 2)
          to label %invoke.cont10 unwind label %lpad

invoke.cont10:                                    ; preds = %invoke.cont7
  %call13 = invoke noundef nonnull align 8 dereferenceable(8) ptr @_ZStlsIcSt11char_traitsIcESaIcEERSt13basic_ostreamIT_T0_ES7_RKNSt7__cxx1112basic_stringIS4_S5_T1_EE(ptr noundef nonnull align 8 dereferenceable(8) %call8, ptr noundef nonnull align 8 dereferenceable(32) %ref.tmp9)
          to label %invoke.cont12 unwind label %lpad11

invoke.cont12:                                    ; preds = %invoke.cont10
  call void @_ZNSt7__cxx1112basic_stringIcSt11char_traitsIcESaIcEED1Ev(ptr noundef nonnull align 8 dereferenceable(32) %ref.tmp9) #21
  call void @_ZN6google10LogMessageD1Ev(ptr noundef nonnull align 8 dereferenceable(16) %ref.tmp) #21
  br label %return

lpad:                                             ; preds = %invoke.cont7, %invoke.cont5, %invoke.cont, %if.then3
  %3 = landingpad { ptr, i32 }
          cleanup
  br label %ehcleanup

lpad11:                                           ; preds = %invoke.cont10
  %4 = landingpad { ptr, i32 }
          cleanup
  call void @_ZNSt7__cxx1112basic_stringIcSt11char_traitsIcESaIcEED1Ev(ptr noundef nonnull align 8 dereferenceable(32) %ref.tmp9) #21
  br label %ehcleanup

ehcleanup:                                        ; preds = %lpad11, %lpad
  %.pn = phi { ptr, i32 } [ %4, %lpad11 ], [ %3, %lpad ]
  call void @_ZN6google10LogMessageD1Ev(ptr noundef nonnull align 8 dereferenceable(16) %ref.tmp) #21
  resume { ptr, i32 } %.pn

return:                                           ; preds = %_ZN8facebook5velox6memory15MallocAllocator14incrementUsageEl.exit, %if.end, %invoke.cont12
  %retval.0 = phi ptr [ null, %_ZN8facebook5velox6memory15MallocAllocator14incrementUsageEl.exit ], [ null, %invoke.cont12 ], [ %call2, %if.end ]
  ret ptr %retval.0
}